target datalayout = "e-m:e-p270:32:32-p271:32:32-p272:64:64-i64:64-i128:128-f80:128-n8:16:32:64-S128"
target triple = "x86_64-pc-linux-gnu"

%union.pthread_mutex_t = type { %struct.__pthread_mutex_s }
%struct.__pthread_mutex_s = type { i32, i32, i32, i32, i32, i16, i16, %struct.__pthread_internal_list }
%struct.__pthread_internal_list = type { ptr, ptr }
%union.pthread_cond_t = type { %struct.__pthread_cond_s }
%struct.__pthread_cond_s = type { %union.__atomic_wide_counter, %union.__atomic_wide_counter, [2 x i32], [2 x i32], i32, i32, [2 x i32] }
%union.__atomic_wide_counter = type { i64 }

@nthreads = internal global i32 0, align 4
@exit_message = internal global [2 x ptr] zeroinitializer, align 16
@threads = internal global ptr null, align 8
@default_threads = internal global [4 x i64] zeroinitializer, align 16
@mutex = internal global %union.pthread_mutex_t zeroinitializer, align 8
@cond = internal global %union.pthread_cond_t zeroinitializer, align 8
@slow_io_pending_wq = internal global [2 x ptr] zeroinitializer, align 16
@run_slow_work_message = internal global [2 x ptr] zeroinitializer, align 16
@wq = internal global [2 x ptr] zeroinitializer, align 16
@idle_threads = internal global i32 0, align 4

; Function Attrs: nounwind uwtable
define internal void @post(ptr noundef %0, i32 noundef %1) #0 {
  %3 = alloca ptr, align 8
  %4 = alloca i32, align 4
  store ptr %0, ptr %3, align 8, !tbaa !13
  store i32 %1, ptr %4, align 4, !tbaa !4
  call void @uv_mutex_lock(ptr noundef @mutex)
  %5 = load i32, ptr %4, align 4, !tbaa !4
  %6 = icmp eq i32 %5, 2
  br i1 %6, label %7, label %25

7:                                                ; preds = %2
  br label %8

8:                                                ; preds = %7
  %9 = load ptr, ptr %3, align 8, !tbaa !13
  %10 = getelementptr inbounds [2 x ptr], ptr %9, i64 0, i64 0
  store ptr @slow_io_pending_wq, ptr %10, align 8, !tbaa !13
  %11 = load ptr, ptr getelementptr inbounds ([2 x ptr], ptr @slow_io_pending_wq, i64 0, i64 1), align 8, !tbaa !13
  %12 = load ptr, ptr %3, align 8, !tbaa !13
  %13 = getelementptr inbounds [2 x ptr], ptr %12, i64 0, i64 1
  store ptr %11, ptr %13, align 8, !tbaa !13
  %14 = load ptr, ptr %3, align 8, !tbaa !13
  %15 = load ptr, ptr %3, align 8, !tbaa !13
  %16 = getelementptr inbounds [2 x ptr], ptr %15, i64 0, i64 1
  %17 = load ptr, ptr %16, align 8, !tbaa !13
  %18 = getelementptr inbounds [2 x ptr], ptr %17, i64 0, i64 0
  store ptr %14, ptr %18, align 8, !tbaa !13
  %19 = load ptr, ptr %3, align 8, !tbaa !13
  store ptr %19, ptr getelementptr inbounds ([2 x ptr], ptr @slow_io_pending_wq, i64 0, i64 1), align 8, !tbaa !13
  br label %20

20:                                               ; preds = %8
  %21 = load ptr, ptr @run_slow_work_message, align 16, !tbaa !13
  %22 = icmp eq ptr @run_slow_work_message, %21
  br i1 %22, label %24, label %23

23:                                               ; preds = %20
  call void @uv_mutex_unlock(ptr noundef @mutex)
  br label %43

24:                                               ; preds = %20
  store ptr @run_slow_work_message, ptr %3, align 8, !tbaa !13
  br label %25

25:                                               ; preds = %24, %2
  br label %26

26:                                               ; preds = %25
  %27 = load ptr, ptr %3, align 8, !tbaa !13
  %28 = getelementptr inbounds [2 x ptr], ptr %27, i64 0, i64 0
  store ptr @wq, ptr %28, align 8, !tbaa !13
  %29 = load ptr, ptr getelementptr inbounds ([2 x ptr], ptr @wq, i64 0, i64 1), align 8, !tbaa !13
  %30 = load ptr, ptr %3, align 8, !tbaa !13
  %31 = getelementptr inbounds [2 x ptr], ptr %30, i64 0, i64 1
  store ptr %29, ptr %31, align 8, !tbaa !13
  %32 = load ptr, ptr %3, align 8, !tbaa !13
  %33 = load ptr, ptr %3, align 8, !tbaa !13
  %34 = getelementptr inbounds [2 x ptr], ptr %33, i64 0, i64 1
  %35 = load ptr, ptr %34, align 8, !tbaa !13
  %36 = getelementptr inbounds [2 x ptr], ptr %35, i64 0, i64 0
  store ptr %32, ptr %36, align 8, !tbaa !13
  %37 = load ptr, ptr %3, align 8, !tbaa !13
  store ptr %37, ptr getelementptr inbounds ([2 x ptr], ptr @wq, i64 0, i64 1), align 8, !tbaa !13
  br label %38

38:                                               ; preds = %26
  %39 = load i32, ptr @idle_threads, align 4, !tbaa !4
  %40 = icmp ugt i32 %39, 0
  br i1 %40, label %41, label %42

41:                                               ; preds = %38
  call void @uv_cond_signal(ptr noundef @cond)
  br label %42

42:                                               ; preds = %41, %38
  call void @uv_mutex_unlock(ptr noundef @mutex)
  br label %43

43:                                               ; preds = %42, %23
  ret void
}

; Function Attrs: nounwind uwtable
define dso_local void @uv__threadpool_cleanup() #0 {
  %1 = alloca i32, align 4
  %2 = alloca i32, align 4
  call void @llvm.lifetime.start.p0(i64 4, ptr %1) #7
  %3 = load i32, ptr @nthreads, align 4, !tbaa !4
  %4 = icmp eq i32 %3, 0
  br i1 %4, label %5, label %6

5:                                                ; preds = %0
  store i32 1, ptr %2, align 4
  br label %29

6:                                                ; preds = %0
  call void @post(ptr noundef @exit_message, i32 noundef 0)
  store i32 0, ptr %1, align 4, !tbaa !4
  br label %7

7:                                                ; preds = %20, %6
  %8 = load i32, ptr %1, align 4, !tbaa !4
  %9 = load i32, ptr @nthreads, align 4, !tbaa !4
  %10 = icmp ult i32 %8, %9
  br i1 %10, label %11, label %23

11:                                               ; preds = %7
  %12 = load ptr, ptr @threads, align 8, !tbaa !8
  %13 = load i32, ptr %1, align 4, !tbaa !4
  %14 = zext i32 %13 to i64
  %15 = getelementptr inbounds nuw i64, ptr %12, i64 %14
  %16 = call i32 @uv_thread_join(ptr noundef %15)
  %17 = icmp ne i32 %16, 0
  br i1 %17, label %18, label %19

18:                                               ; preds = %11
  call void @abort() #8
  unreachable

19:                                               ; preds = %11
  br label %20

20:                                               ; preds = %19
  %21 = load i32, ptr %1, align 4, !tbaa !4
  %22 = add i32 %21, 1
  store i32 %22, ptr %1, align 4, !tbaa !4
  br label %7, !llvm.loop !11

23:                                               ; preds = %7
  %24 = load ptr, ptr @threads, align 8, !tbaa !8
  %25 = icmp ne ptr %24, @default_threads
  br i1 %25, label %26, label %28

26:                                               ; preds = %23
  %27 = load ptr, ptr @threads, align 8, !tbaa !8
  call void @uv__free(ptr noundef %27)
  br label %28

28:                                               ; preds = %26, %23
  call void @uv_mutex_destroy(ptr noundef @mutex)
  call void @uv_cond_destroy(ptr noundef @cond)
  store ptr null, ptr @threads, align 8, !tbaa !8
  store i32 0, ptr @nthreads, align 4, !tbaa !4
  store i32 0, ptr %2, align 4
  br label %29

29:                                               ; preds = %28, %5
  call void @llvm.lifetime.end.p0(i64 4, ptr %1) #7
  %30 = load i32, ptr %2, align 4
  switch i32 %30, label %32 [
    i32 0, label %31
    i32 1, label %31
  ]

31:                                               ; preds = %29, %29
  ret void

32:                                               ; preds = %29
  unreachable
}